Certificate:
    Data:
        Version: 3 (0x2)
        Serial Number: 1 (0x1)
    Signature Algorithm: sha256WithRSAEncryption
        Issuer: C=US, ST=WY, L=Laramie, O=Cowboy Robotics, OU=Computer Science, CN=cowboyrobotics.com/name=server/emailAddress=bmoore16@uwyo.edu
        Validity
            Not Before: Jan 29 22:58:41 2016 GMT
            Not After : Jan 26 22:58:41 2026 GMT
        Subject: C=US, ST=WY, L=Laramie, O=Cowboy Robotics, OU=Computer Science, CN=cowboyrobotics.com/name=server/emailAddress=bmoore16@uwyo.edu
        Subject Public Key Info:
            Public Key Algorithm: rsaEncryption
                Public-Key: (2048 bit)
                Modulus:
                    00:b5:45:94:bd:35:8e:ec:2b:1d:91:02:66:d0:14:
                    77:30:4b:17:e0:ce:95:1d:15:b4:32:84:74:b2:16:
                    10:53:98:4a:42:06:16:6a:7b:e9:b5:76:e0:95:47:
                    81:d8:e9:ea:ea:75:c3:14:ad:63:8d:40:6e:c7:ee:
                    84:89:16:08:15:66:47:76:4b:9b:06:7f:4e:08:e2:
                    58:f8:8a:88:8b:54:f3:df:f5:1b:c1:ae:7c:56:2e:
                    9e:a0:77:5b:c7:8f:d2:8f:82:98:6c:39:ca:46:70:
                    69:4d:e2:43:0b:41:0e:3d:3d:a1:76:41:32:4a:a3:
                    54:ad:af:8a:a0:e5:4b:38:bd:9c:f1:fa:79:b0:a9:
                    a3:84:48:73:2a:93:99:af:95:7c:40:19:a0:aa:69:
                    15:15:bc:1b:af:5b:5f:d0:3f:da:69:4d:57:46:04:
                    0c:7a:da:81:f7:ce:a4:17:97:4c:d7:67:9a:1c:f1:
                    d8:c0:3b:94:5a:58:0d:34:26:50:b5:be:fd:90:32:
                    71:cc:1c:c7:d6:71:2d:59:fb:2d:8d:44:e3:d4:f2:
                    37:be:a1:17:9f:80:89:c7:0d:b8:d7:91:b1:c7:1a:
                    bf:64:7c:7b:b1:7c:82:1a:20:de:24:12:85:bb:7e:
                    15:12:68:cb:6f:ba:38:66:24:1d:0f:17:f0:11:9c:
                    b2:37
                Exponent: 65537 (0x10001)
        X509v3 extensions:
            X509v3 Basic Constraints: 
                CA:FALSE
            Netscape Cert Type: 
                SSL Server
            Netscape Comment: 
                Easy-RSA Generated Server Certificate
            X509v3 Subject Key Identifier: 
                2C:ED:DD:B6:2D:8A:4F:94:76:E7:F8:19:C7:1A:65:04:A9:19:95:51
            X509v3 Authority Key Identifier: 
                keyid:E5:57:6C:58:1D:C6:83:59:8B:99:1A:6D:E9:88:1C:82:25:E1:C9:D1
                DirName:/C=US/ST=WY/L=Laramie/O=Cowboy Robotics/OU=Computer Science/CN=cowboyrobotics.com/name=server/emailAddress=bmoore16@uwyo.edu
                serial:A7:24:C2:EF:95:5D:15:20

            X509v3 Extended Key Usage: 
                TLS Web Server Authentication
            X509v3 Key Usage: 
                Digital Signature, Key Encipherment
            X509v3 Subject Alternative Name: 
                DNS:server
    Signature Algorithm: sha256WithRSAEncryption
         b9:36:9b:88:8d:03:74:97:98:10:0a:ed:a8:15:c0:d3:40:b5:
         dc:1b:bf:41:00:9e:b2:85:36:29:61:97:27:7d:07:9f:03:d3:
         73:67:02:49:49:f0:0a:4f:77:2b:12:23:2d:93:ad:fa:d7:28:
         9b:5d:03:5d:05:dd:eb:ec:29:4f:3a:04:a1:0e:7f:64:95:10:
         41:d8:49:af:cc:da:d0:ea:69:24:bd:fb:f2:f7:82:1d:fa:52:
         27:b9:d5:7d:c3:49:90:3b:5e:b9:c0:11:10:d3:14:b2:de:82:
         ad:c6:21:6b:c5:62:34:15:2b:a3:24:34:10:ff:ca:49:d8:df:
         e4:c5:c5:e7:ee:9a:63:ed:85:87:3c:df:54:6c:09:5d:01:37:
         8f:2a:aa:53:8a:a1:c4:5c:93:c8:61:a4:fd:ff:b6:82:6f:14:
         ee:eb:dd:5c:d9:20:01:34:d6:24:73:c2:33:1b:d9:08:af:cd:
         f7:4f:ee:bf:da:25:ac:eb:90:41:18:87:bc:26:f7:15:10:e1:
         2d:c9:82:3a:47:27:fb:2f:0d:3c:60:31:92:e2:ec:e4:8e:b3:
         7b:5a:20:40:d6:76:6c:18:16:07:d9:f7:03:e7:30:43:df:05:
         a9:0d:8c:2c:88:c7:6d:72:33:a2:93:bc:7a:e1:5b:4e:de:a6:
         1f:c1:64:11
-----BEGIN CERTIFICATE-----
MIIFdjCCBF6gAwIBAgIBATANBgkqhkiG9w0BAQsFADCBsTELMAkGA1UEBhMCVVMx
CzAJBgNVBAgTAldZMRAwDgYDVQQHEwdMYXJhbWllMRgwFgYDVQQKEw9Db3dib3kg
Um9ib3RpY3MxGTAXBgNVBAsTEENvbXB1dGVyIFNjaWVuY2UxGzAZBgNVBAMTEmNv
d2JveXJvYm90aWNzLmNvbTEPMA0GA1UEKRMGc2VydmVyMSAwHgYJKoZIhvcNAQkB
FhFibW9vcmUxNkB1d3lvLmVkdTAeFw0xNjAxMjkyMjU4NDFaFw0yNjAxMjYyMjU4
NDFaMIGxMQswCQYDVQQGEwJVUzELMAkGA1UECBMCV1kxEDAOBgNVBAcTB0xhcmFt
aWUxGDAWBgNVBAoTD0Nvd2JveSBSb2JvdGljczEZMBcGA1UECxMQQ29tcHV0ZXIg
U2NpZW5jZTEbMBkGA1UEAxMSY293Ym95cm9ib3RpY3MuY29tMQ8wDQYDVQQpEwZz
ZXJ2ZXIxIDAeBgkqhkiG9w0BCQEWEWJtb29yZTE2QHV3eW8uZWR1MIIBIjANBgkq
hkiG9w0BAQEFAAOCAQ8AMIIBCgKCAQEAtUWUvTWO7CsdkQJm0BR3MEsX4M6VHRW0
MoR0shYQU5hKQgYWanvptXbglUeB2Onq6nXDFK1jjUBux+6EiRYIFWZHdkubBn9O
COJY+IqIi1Tz3/Ubwa58Vi6eoHdbx4/Sj4KYbDnKRnBpTeJDC0EOPT2hdkEySqNU
ra+KoOVLOL2c8fp5sKmjhEhzKpOZr5V8QBmgqmkVFbwbr1tf0D/aaU1XRgQMetqB
986kF5dM12eaHPHYwDuUWlgNNCZQtb79kDJxzBzH1nEtWfstjUTj1PI3vqEXn4CJ
xw2415Gxxxq/ZHx7sXyCGiDeJBKFu34VEmjLb7o4ZiQdDxfwEZyyNwIDAQABo4IB
lTCCAZEwCQYDVR0TBAIwADARBglghkgBhvhCAQEEBAMCBkAwNAYJYIZIAYb4QgEN
BCcWJUVhc3ktUlNBIEdlbmVyYXRlZCBTZXJ2ZXIgQ2VydGlmaWNhdGUwHQYDVR0O
BBYEFCzt3bYtik+Uduf4GccaZQSpGZVRMIHmBgNVHSMEgd4wgduAFOVXbFgdxoNZ
i5kabemIHIIl4cnRoYG3pIG0MIGxMQswCQYDVQQGEwJVUzELMAkGA1UECBMCV1kx
EDAOBgNVBAcTB0xhcmFtaWUxGDAWBgNVBAoTD0Nvd2JveSBSb2JvdGljczEZMBcG
A1UECxMQQ29tcHV0ZXIgU2NpZW5jZTEbMBkGA1UEAxMSY293Ym95cm9ib3RpY3Mu
Y29tMQ8wDQYDVQQpEwZzZXJ2ZXIxIDAeBgkqhkiG9w0BCQEWEWJtb29yZTE2QHV3
eW8uZWR1ggkApyTC75VdFSAwEwYDVR0lBAwwCgYIKwYBBQUHAwEwCwYDVR0PBAQD
AgWgMBEGA1UdEQQKMAiCBnNlcnZlcjANBgkqhkiG9w0BAQsFAAOCAQEAuTabiI0D
dJeYEArtqBXA00C13Bu/QQCesoU2KWGXJ30HnwPTc2cCSUnwCk93KxIjLZOt+tco
m10DXQXd6+wpTzoEoQ5/ZJUQQdhJr8za0OppJL378veCHfpSJ7nVfcNJkDteucAR
ENMUst6CrcYha8ViNBUroyQ0EP/KSdjf5MXF5+6aY+2FhzzfVGwJXQE3jyqqU4qh
xFyTyGGk/f+2gm8U7uvdXNkgATTWJHPCMxvZCK/N90/uv9olrOuQQRiHvCb3FRDh
LcmCOkcn+y8NPGAxkuLs5I6ze1ogQNZ2bBgWB9n3A+cwQ98FqQ2MLIjHbXIzopO8
euFbTt6mH8FkEQ==
-----END CERTIFICATE-----
