Certificate:
    Data:
        Version: 3 (0x2)
        Serial Number: 2 (0x2)
    Signature Algorithm: sha256WithRSAEncryption
        Issuer: C=US, ST=WY, L=Laramie, O=Cowboy Robotics, OU=Computer Science, CN=cowboyrobotics.com/name=server/emailAddress=bmoore16@uwyo.edu
        Validity
            Not Before: Jan 29 23:00:41 2016 GMT
            Not After : Jan 26 23:00:41 2026 GMT
        Subject: C=US, ST=WY, L=Laramie, O=Cowboy Robotics, OU=Computer Science, CN=steamboat/name=server/emailAddress=bmoore16@uwyo.edu
        Subject Public Key Info:
            Public Key Algorithm: rsaEncryption
                Public-Key: (2048 bit)
                Modulus:
                    00:bc:1d:f7:25:49:70:18:f4:e1:3f:60:de:35:e9:
                    af:0f:49:b5:e8:a4:bd:bd:28:f2:43:0e:33:af:5b:
                    7f:f6:71:0f:c3:d8:c6:f4:44:22:69:c5:35:53:ee:
                    e8:0b:b7:14:cf:0b:94:dd:0b:08:59:11:de:76:19:
                    c9:c9:16:21:5d:cb:11:67:eb:dd:17:13:bc:76:8f:
                    31:bd:63:c0:71:bc:02:5a:0a:c3:f7:b4:82:d8:5c:
                    b8:d7:8b:b2:5e:94:83:25:b4:84:01:56:5e:db:c7:
                    65:50:03:c4:8b:cc:62:eb:6d:e3:29:38:5e:14:34:
                    21:f0:3a:db:7e:6d:d8:ac:52:2d:1f:e4:86:32:4f:
                    03:02:ad:e9:59:66:2b:b8:9f:3e:d8:3d:1c:ca:5d:
                    73:bf:5b:03:ac:a5:e7:73:4f:05:fc:84:85:fc:4f:
                    c2:54:dd:01:b9:13:1e:ae:98:87:61:9d:ac:6f:98:
                    8a:6e:3a:8c:47:0b:63:f8:6e:10:39:89:c5:c8:45:
                    25:b1:06:61:a1:e5:f6:dc:d0:0b:1d:93:c2:65:a5:
                    60:bd:f2:97:16:ad:88:46:a5:47:94:ca:50:4b:9e:
                    4d:c0:f2:bb:90:75:c3:e7:56:95:9c:6f:95:8b:e8:
                    60:27:55:6e:0a:a1:49:88:e7:65:51:8d:0d:65:0b:
                    18:37
                Exponent: 65537 (0x10001)
        X509v3 extensions:
            X509v3 Basic Constraints: 
                CA:FALSE
            Netscape Comment: 
                Easy-RSA Generated Certificate
            X509v3 Subject Key Identifier: 
                98:E6:B6:50:72:36:F4:F0:6E:C5:9E:F4:02:D6:0D:0E:4A:53:09:0D
            X509v3 Authority Key Identifier: 
                keyid:E5:57:6C:58:1D:C6:83:59:8B:99:1A:6D:E9:88:1C:82:25:E1:C9:D1
                DirName:/C=US/ST=WY/L=Laramie/O=Cowboy Robotics/OU=Computer Science/CN=cowboyrobotics.com/name=server/emailAddress=bmoore16@uwyo.edu
                serial:A7:24:C2:EF:95:5D:15:20

            X509v3 Extended Key Usage: 
                TLS Web Client Authentication
            X509v3 Key Usage: 
                Digital Signature
            X509v3 Subject Alternative Name: 
                DNS:steamboat
    Signature Algorithm: sha256WithRSAEncryption
         bd:b4:0d:e4:49:31:cd:e8:55:ba:45:93:f4:22:06:e0:11:18:
         a7:8d:be:4a:6b:90:78:12:90:27:da:81:8f:ae:f3:01:2a:1f:
         3d:1c:61:b0:29:86:81:19:24:2d:bc:90:bc:ac:f4:48:d2:90:
         cf:74:b0:49:a8:12:a4:49:ba:7c:1f:76:e3:65:f9:50:5d:22:
         60:a2:2d:81:90:86:d7:6c:cb:71:f0:79:93:2f:97:18:61:ad:
         b0:ff:a4:97:23:d0:6c:3b:12:25:86:4b:7c:e4:76:30:1b:b2:
         68:22:45:44:73:19:41:91:e2:ec:8d:d2:b4:22:c1:49:f4:c5:
         d6:ab:ea:f7:cb:ee:bb:a7:89:84:d7:9a:2c:04:3f:2d:3f:8a:
         20:cf:f8:31:6e:09:38:67:ce:83:1b:fd:8b:a6:5f:7f:98:02:
         7a:22:eb:36:e2:e2:41:2d:2e:ba:b3:05:02:4b:eb:22:43:38:
         01:d6:57:31:42:be:be:d2:62:c0:cd:32:75:9f:dc:da:18:dc:
         38:42:4b:6f:7a:68:4a:c1:90:13:e7:18:ce:77:f5:39:01:44:
         0e:b3:6d:43:df:86:e8:28:73:0c:8d:a1:e0:ec:96:bd:2d:cc:
         fb:9b:41:bd:1f:c7:c6:01:88:bb:4e:d2:84:f5:c6:4e:fb:86:
         fb:a3:e1:23
-----BEGIN CERTIFICATE-----
MIIFVjCCBD6gAwIBAgIBAjANBgkqhkiG9w0BAQsFADCBsTELMAkGA1UEBhMCVVMx
CzAJBgNVBAgTAldZMRAwDgYDVQQHEwdMYXJhbWllMRgwFgYDVQQKEw9Db3dib3kg
Um9ib3RpY3MxGTAXBgNVBAsTEENvbXB1dGVyIFNjaWVuY2UxGzAZBgNVBAMTEmNv
d2JveXJvYm90aWNzLmNvbTEPMA0GA1UEKRMGc2VydmVyMSAwHgYJKoZIhvcNAQkB
FhFibW9vcmUxNkB1d3lvLmVkdTAeFw0xNjAxMjkyMzAwNDFaFw0yNjAxMjYyMzAw
NDFaMIGoMQswCQYDVQQGEwJVUzELMAkGA1UECBMCV1kxEDAOBgNVBAcTB0xhcmFt
aWUxGDAWBgNVBAoTD0Nvd2JveSBSb2JvdGljczEZMBcGA1UECxMQQ29tcHV0ZXIg
U2NpZW5jZTESMBAGA1UEAxMJc3RlYW1ib2F0MQ8wDQYDVQQpEwZzZXJ2ZXIxIDAe
BgkqhkiG9w0BCQEWEWJtb29yZTE2QHV3eW8uZWR1MIIBIjANBgkqhkiG9w0BAQEF
AAOCAQ8AMIIBCgKCAQEAvB33JUlwGPThP2DeNemvD0m16KS9vSjyQw4zr1t/9nEP
w9jG9EQiacU1U+7oC7cUzwuU3QsIWRHedhnJyRYhXcsRZ+vdFxO8do8xvWPAcbwC
WgrD97SC2Fy414uyXpSDJbSEAVZe28dlUAPEi8xi623jKTheFDQh8Drbfm3YrFIt
H+SGMk8DAq3pWWYruJ8+2D0cyl1zv1sDrKXnc08F/ISF/E/CVN0BuRMerpiHYZ2s
b5iKbjqMRwtj+G4QOYnFyEUlsQZhoeX23NALHZPCZaVgvfKXFq2IRqVHlMpQS55N
wPK7kHXD51aVnG+Vi+hgJ1VuCqFJiOdlUY0NZQsYNwIDAQABo4IBfjCCAXowCQYD
VR0TBAIwADAtBglghkgBhvhCAQ0EIBYeRWFzeS1SU0EgR2VuZXJhdGVkIENlcnRp
ZmljYXRlMB0GA1UdDgQWBBSY5rZQcjb08G7FnvQC1g0OSlMJDTCB5gYDVR0jBIHe
MIHbgBTlV2xYHcaDWYuZGm3piByCJeHJ0aGBt6SBtDCBsTELMAkGA1UEBhMCVVMx
CzAJBgNVBAgTAldZMRAwDgYDVQQHEwdMYXJhbWllMRgwFgYDVQQKEw9Db3dib3kg
Um9ib3RpY3MxGTAXBgNVBAsTEENvbXB1dGVyIFNjaWVuY2UxGzAZBgNVBAMTEmNv
d2JveXJvYm90aWNzLmNvbTEPMA0GA1UEKRMGc2VydmVyMSAwHgYJKoZIhvcNAQkB
FhFibW9vcmUxNkB1d3lvLmVkdYIJAKckwu+VXRUgMBMGA1UdJQQMMAoGCCsGAQUF
BwMCMAsGA1UdDwQEAwIHgDAUBgNVHREEDTALgglzdGVhbWJvYXQwDQYJKoZIhvcN
AQELBQADggEBAL20DeRJMc3oVbpFk/QiBuARGKeNvkprkHgSkCfagY+u8wEqHz0c
YbAphoEZJC28kLys9EjSkM90sEmoEqRJunwfduNl+VBdImCiLYGQhtdsy3HweZMv
lxhhrbD/pJcj0Gw7EiWGS3zkdjAbsmgiRURzGUGR4uyN0rQiwUn0xdar6vfL7run
iYTXmiwEPy0/iiDP+DFuCThnzoMb/YumX3+YAnoi6zbi4kEtLrqzBQJL6yJDOAHW
VzFCvr7SYsDNMnWf3NoY3DhCS296aErBkBPnGM539TkBRA6zbUPfhugocwyNoeDs
lr0tzPubQb0fx8YBiLtO0oT1xk77hvuj4SM=
-----END CERTIFICATE-----
