Certificate:
    Data:
        Version: 3 (0x2)
        Serial Number: 4 (0x4)
    Signature Algorithm: sha256WithRSAEncryption
        Issuer: C=US, ST=WY, L=Laramie, O=Cowboy Robotics, OU=Computer Science, CN=cowboyrobotics.com/name=server/emailAddress=bmoore16@uwyo.edu
        Validity
            Not Before: Jan 29 23:01:33 2016 GMT
            Not After : Jan 26 23:01:33 2026 GMT
        Subject: C=US, ST=WY, L=Laramie, O=Cowboy Robotics, OU=Computer Science, CN=missionControl/name=server/emailAddress=bmoore16@uwyo.edu
        Subject Public Key Info:
            Public Key Algorithm: rsaEncryption
                Public-Key: (2048 bit)
                Modulus:
                    00:e1:98:2e:3c:31:be:94:e0:27:7d:40:43:ca:e5:
                    7b:69:d4:5d:fb:a0:c6:b7:21:f9:aa:63:2a:c3:cc:
                    c1:a0:ac:f9:1a:58:6f:b9:87:01:85:f1:61:af:50:
                    37:e0:34:5b:5b:26:bc:c8:81:90:4d:25:ee:63:cb:
                    62:9c:ac:75:78:5b:9b:1e:40:35:54:ec:36:3c:24:
                    ea:49:45:6b:26:2e:6a:41:00:6b:d4:6d:2b:47:b7:
                    62:71:34:4d:5b:87:eb:69:21:7b:0e:32:6c:c1:28:
                    38:0b:7a:20:98:d2:0f:9b:5e:24:e4:70:db:b4:25:
                    e9:43:4b:d0:a7:50:74:c8:6d:ac:8e:46:1e:48:e1:
                    38:74:9a:19:5f:2c:8e:84:b6:91:4d:c6:d9:c8:f3:
                    11:60:93:ef:ed:28:bf:58:2d:26:ea:d3:41:79:d2:
                    62:99:75:c0:55:0d:8e:b9:15:44:87:72:79:5f:8a:
                    0f:da:57:ea:8f:c6:d2:8e:77:46:47:3a:c9:99:c6:
                    f1:de:80:26:1b:b8:39:0a:d8:3f:77:c5:40:db:98:
                    03:8c:93:fc:6d:3e:75:68:0b:bf:68:ea:16:c9:1a:
                    39:b9:2a:f1:77:f0:54:3e:22:ea:a3:a7:ad:5c:65:
                    63:06:91:a6:ba:a9:15:d8:a9:4c:4f:98:5b:30:a5:
                    9a:33
                Exponent: 65537 (0x10001)
        X509v3 extensions:
            X509v3 Basic Constraints: 
                CA:FALSE
            Netscape Comment: 
                Easy-RSA Generated Certificate
            X509v3 Subject Key Identifier: 
                E3:B9:39:65:ED:34:B6:F8:A5:3C:60:ED:AD:48:2A:A6:99:C0:26:AC
            X509v3 Authority Key Identifier: 
                keyid:E5:57:6C:58:1D:C6:83:59:8B:99:1A:6D:E9:88:1C:82:25:E1:C9:D1
                DirName:/C=US/ST=WY/L=Laramie/O=Cowboy Robotics/OU=Computer Science/CN=cowboyrobotics.com/name=server/emailAddress=bmoore16@uwyo.edu
                serial:A7:24:C2:EF:95:5D:15:20

            X509v3 Extended Key Usage: 
                TLS Web Client Authentication
            X509v3 Key Usage: 
                Digital Signature
            X509v3 Subject Alternative Name: 
                DNS:missionControl
    Signature Algorithm: sha256WithRSAEncryption
         eb:a4:3a:ea:07:49:2a:62:61:4b:b3:c3:d7:4e:16:dd:87:a4:
         72:01:2c:cf:42:1a:76:6b:9f:09:3e:cf:ee:4e:e7:ef:cd:26:
         90:9f:75:8a:79:59:40:62:7a:4c:d3:f9:20:16:d0:4e:30:cd:
         32:4f:f2:85:a2:20:f9:11:49:6b:6b:ad:9d:19:b9:cf:a3:04:
         0e:de:13:64:71:8d:df:f3:8e:3d:19:bf:3d:76:a2:85:b0:f0:
         00:f1:d7:55:b0:44:cc:02:a5:aa:81:24:53:34:b3:4c:7f:63:
         b4:c8:5c:37:40:91:b0:5c:66:f0:83:3e:38:0b:62:d6:14:df:
         71:8c:c0:cf:8d:27:e5:6c:62:03:08:c7:58:0f:06:90:10:c4:
         dd:3c:c0:70:e0:38:f6:0e:18:43:c1:4e:9f:ee:3b:df:d7:9d:
         39:31:08:e7:46:87:1f:b3:55:15:4f:60:ee:6e:e4:b5:c2:ad:
         cb:73:fd:77:fc:e5:76:87:66:58:e6:2b:0f:0d:e6:51:3a:d4:
         a7:e7:7e:55:f3:a2:6b:c7:1c:d2:49:6d:5c:15:e7:a0:46:aa:
         6e:c8:cf:b7:41:7d:44:c5:7d:74:49:39:ff:5a:14:88:b1:a2:
         32:22:35:b6:fa:8e:4b:87:6d:e4:11:0e:fa:d9:43:ad:b2:44:
         05:a2:a4:28
-----BEGIN CERTIFICATE-----
MIIFYDCCBEigAwIBAgIBBDANBgkqhkiG9w0BAQsFADCBsTELMAkGA1UEBhMCVVMx
CzAJBgNVBAgTAldZMRAwDgYDVQQHEwdMYXJhbWllMRgwFgYDVQQKEw9Db3dib3kg
Um9ib3RpY3MxGTAXBgNVBAsTEENvbXB1dGVyIFNjaWVuY2UxGzAZBgNVBAMTEmNv
d2JveXJvYm90aWNzLmNvbTEPMA0GA1UEKRMGc2VydmVyMSAwHgYJKoZIhvcNAQkB
FhFibW9vcmUxNkB1d3lvLmVkdTAeFw0xNjAxMjkyMzAxMzNaFw0yNjAxMjYyMzAx
MzNaMIGtMQswCQYDVQQGEwJVUzELMAkGA1UECBMCV1kxEDAOBgNVBAcTB0xhcmFt
aWUxGDAWBgNVBAoTD0Nvd2JveSBSb2JvdGljczEZMBcGA1UECxMQQ29tcHV0ZXIg
U2NpZW5jZTEXMBUGA1UEAxMObWlzc2lvbkNvbnRyb2wxDzANBgNVBCkTBnNlcnZl
cjEgMB4GCSqGSIb3DQEJARYRYm1vb3JlMTZAdXd5by5lZHUwggEiMA0GCSqGSIb3
DQEBAQUAA4IBDwAwggEKAoIBAQDhmC48Mb6U4Cd9QEPK5Xtp1F37oMa3IfmqYyrD
zMGgrPkaWG+5hwGF8WGvUDfgNFtbJrzIgZBNJe5jy2KcrHV4W5seQDVU7DY8JOpJ
RWsmLmpBAGvUbStHt2JxNE1bh+tpIXsOMmzBKDgLeiCY0g+bXiTkcNu0JelDS9Cn
UHTIbayORh5I4Th0mhlfLI6EtpFNxtnI8xFgk+/tKL9YLSbq00F50mKZdcBVDY65
FUSHcnlfig/aV+qPxtKOd0ZHOsmZxvHegCYbuDkK2D93xUDbmAOMk/xtPnVoC79o
6hbJGjm5KvF38FQ+Iuqjp61cZWMGkaa6qRXYqUxPmFswpZozAgMBAAGjggGDMIIB
fzAJBgNVHRMEAjAAMC0GCWCGSAGG+EIBDQQgFh5FYXN5LVJTQSBHZW5lcmF0ZWQg
Q2VydGlmaWNhdGUwHQYDVR0OBBYEFOO5OWXtNLb4pTxg7a1IKqaZwCasMIHmBgNV
HSMEgd4wgduAFOVXbFgdxoNZi5kabemIHIIl4cnRoYG3pIG0MIGxMQswCQYDVQQG
EwJVUzELMAkGA1UECBMCV1kxEDAOBgNVBAcTB0xhcmFtaWUxGDAWBgNVBAoTD0Nv
d2JveSBSb2JvdGljczEZMBcGA1UECxMQQ29tcHV0ZXIgU2NpZW5jZTEbMBkGA1UE
AxMSY293Ym95cm9ib3RpY3MuY29tMQ8wDQYDVQQpEwZzZXJ2ZXIxIDAeBgkqhkiG
9w0BCQEWEWJtb29yZTE2QHV3eW8uZWR1ggkApyTC75VdFSAwEwYDVR0lBAwwCgYI
KwYBBQUHAwIwCwYDVR0PBAQDAgeAMBkGA1UdEQQSMBCCDm1pc3Npb25Db250cm9s
MA0GCSqGSIb3DQEBCwUAA4IBAQDrpDrqB0kqYmFLs8PXThbdh6RyASzPQhp2a58J
Ps/uTufvzSaQn3WKeVlAYnpM0/kgFtBOMM0yT/KFoiD5EUlra62dGbnPowQO3hNk
cY3f8449Gb89dqKFsPAA8ddVsETMAqWqgSRTNLNMf2O0yFw3QJGwXGbwgz44C2LW
FN9xjMDPjSflbGIDCMdYDwaQEMTdPMBw4Dj2DhhDwU6f7jvf1505MQjnRocfs1UV
T2DubuS1wq3Lc/13/OV2h2ZY5isPDeZROtSn535V86JrxxzSSW1cFeegRqpuyM+3
QX1ExX10STn/WhSIsaIyIjW2+o5Lh23kEQ762UOtskQFoqQo
-----END CERTIFICATE-----
