Certificate:
    Data:
        Version: 3 (0x2)
        Serial Number: 5 (0x5)
    Signature Algorithm: sha256WithRSAEncryption
        Issuer: C=US, ST=WY, L=Laramie, O=Cowboy Robotics, OU=Computer Science, CN=cowboyrobotics.com/name=server/emailAddress=bmoore16@uwyo.edu
        Validity
            Not Before: Jan 29 23:01:53 2016 GMT
            Not After : Jan 26 23:01:53 2026 GMT
        Subject: C=US, ST=WY, L=Laramie, O=Cowboy Robotics, OU=Computer Science, CN=cowboyManager/name=server/emailAddress=bmoore16@uwyo.edu
        Subject Public Key Info:
            Public Key Algorithm: rsaEncryption
                Public-Key: (2048 bit)
                Modulus:
                    00:ef:20:66:2c:25:42:7b:28:68:f5:5e:62:76:b4:
                    03:1d:b4:2c:eb:a8:e6:33:ea:06:76:62:5f:0b:a6:
                    2b:fd:bb:87:3f:1f:a7:54:f9:3a:41:f4:0e:da:02:
                    7e:44:35:f5:cd:db:60:4b:07:b0:cd:7b:d9:d0:83:
                    4e:f5:a8:c3:43:4d:9e:d3:69:18:4a:6d:c8:24:8f:
                    b0:22:65:e9:01:d0:a9:bc:04:e3:e9:f0:77:0e:13:
                    4a:ed:44:b2:92:c2:23:7b:82:4f:29:58:68:fd:8a:
                    20:c9:bc:6a:68:a0:af:c3:ce:09:a3:98:72:85:e7:
                    94:fc:e6:ac:b5:8c:bd:28:52:84:dc:61:fb:27:00:
                    cb:70:b9:f6:10:8c:fe:4d:e0:4e:9f:db:5d:0a:1c:
                    66:74:d4:57:a8:a7:16:eb:b8:72:03:eb:56:f8:07:
                    20:38:1d:f1:71:87:30:82:39:ad:c6:98:e4:2f:2f:
                    ae:0a:0c:a2:98:e3:6e:4e:39:87:8d:91:57:1a:4f:
                    e3:0e:91:85:cc:af:7b:7a:7e:f9:55:62:d4:0d:a7:
                    9d:9d:93:d1:4a:c9:a0:f9:ae:42:e1:d3:69:3c:ce:
                    3d:7b:7a:a4:00:0f:10:0b:82:3a:10:c8:ef:05:93:
                    4e:1e:59:56:ab:ee:77:37:76:61:28:4c:4a:6d:2e:
                    5b:91
                Exponent: 65537 (0x10001)
        X509v3 extensions:
            X509v3 Basic Constraints: 
                CA:FALSE
            Netscape Comment: 
                Easy-RSA Generated Certificate
            X509v3 Subject Key Identifier: 
                50:B5:C7:F8:84:6D:0B:8D:A2:92:3C:66:70:3B:68:46:A1:41:2E:5E
            X509v3 Authority Key Identifier: 
                keyid:E5:57:6C:58:1D:C6:83:59:8B:99:1A:6D:E9:88:1C:82:25:E1:C9:D1
                DirName:/C=US/ST=WY/L=Laramie/O=Cowboy Robotics/OU=Computer Science/CN=cowboyrobotics.com/name=server/emailAddress=bmoore16@uwyo.edu
                serial:A7:24:C2:EF:95:5D:15:20

            X509v3 Extended Key Usage: 
                TLS Web Client Authentication
            X509v3 Key Usage: 
                Digital Signature
            X509v3 Subject Alternative Name: 
                DNS:cowboyManager
    Signature Algorithm: sha256WithRSAEncryption
         e1:55:6b:79:f9:b5:4b:dc:ae:01:46:a1:ff:17:c2:2c:44:2a:
         48:de:f9:a3:c1:39:8f:c1:d4:c6:7e:c2:a1:f8:e4:08:e9:4e:
         6e:9c:cf:5f:f9:7f:47:e1:41:86:bc:ea:3f:08:d8:8d:72:6d:
         1b:e7:20:07:77:8f:47:45:6d:0f:f9:97:42:43:35:87:da:36:
         80:d2:bb:d2:7a:33:4e:d5:d3:5d:10:17:b7:b2:aa:2d:3b:88:
         f9:17:2c:eb:25:d6:23:e6:28:c4:a0:55:ba:dc:03:d9:4d:59:
         55:d2:24:b5:52:51:10:59:f8:2a:67:5c:9f:9b:31:9f:ec:66:
         48:c7:f0:d4:83:3a:cd:6a:20:13:53:7b:86:d9:af:1e:7f:db:
         b4:7b:9e:a2:a3:14:37:9a:49:86:eb:51:87:c6:a4:23:23:ba:
         00:66:ec:3e:13:97:f9:d1:07:6d:e4:2f:fa:5a:80:22:a1:58:
         5b:0f:76:56:19:15:72:b0:a7:db:13:bb:83:d9:2d:85:64:67:
         69:a1:84:79:3c:2c:9f:3b:e8:a3:7d:1c:ad:96:2b:0a:7a:45:
         dd:da:bc:96:aa:40:92:9e:b2:c9:75:16:54:de:48:6b:9e:e9:
         ca:aa:ea:2d:19:07:0d:88:75:7d:42:84:48:0d:96:fe:86:2e:
         3b:72:64:0e
-----BEGIN CERTIFICATE-----
MIIFXjCCBEagAwIBAgIBBTANBgkqhkiG9w0BAQsFADCBsTELMAkGA1UEBhMCVVMx
CzAJBgNVBAgTAldZMRAwDgYDVQQHEwdMYXJhbWllMRgwFgYDVQQKEw9Db3dib3kg
Um9ib3RpY3MxGTAXBgNVBAsTEENvbXB1dGVyIFNjaWVuY2UxGzAZBgNVBAMTEmNv
d2JveXJvYm90aWNzLmNvbTEPMA0GA1UEKRMGc2VydmVyMSAwHgYJKoZIhvcNAQkB
FhFibW9vcmUxNkB1d3lvLmVkdTAeFw0xNjAxMjkyMzAxNTNaFw0yNjAxMjYyMzAx
NTNaMIGsMQswCQYDVQQGEwJVUzELMAkGA1UECBMCV1kxEDAOBgNVBAcTB0xhcmFt
aWUxGDAWBgNVBAoTD0Nvd2JveSBSb2JvdGljczEZMBcGA1UECxMQQ29tcHV0ZXIg
U2NpZW5jZTEWMBQGA1UEAxMNY293Ym95TWFuYWdlcjEPMA0GA1UEKRMGc2VydmVy
MSAwHgYJKoZIhvcNAQkBFhFibW9vcmUxNkB1d3lvLmVkdTCCASIwDQYJKoZIhvcN
AQEBBQADggEPADCCAQoCggEBAO8gZiwlQnsoaPVeYna0Ax20LOuo5jPqBnZiXwum
K/27hz8fp1T5OkH0DtoCfkQ19c3bYEsHsM172dCDTvWow0NNntNpGEptyCSPsCJl
6QHQqbwE4+nwdw4TSu1EspLCI3uCTylYaP2KIMm8amigr8POCaOYcoXnlPzmrLWM
vShShNxh+ycAy3C59hCM/k3gTp/bXQocZnTUV6inFuu4cgPrVvgHIDgd8XGHMII5
rcaY5C8vrgoMopjjbk45h42RVxpP4w6Rhcyve3p++VVi1A2nnZ2T0UrJoPmuQuHT
aTzOPXt6pAAPEAuCOhDI7wWTTh5ZVqvudzd2YShMSm0uW5ECAwEAAaOCAYIwggF+
MAkGA1UdEwQCMAAwLQYJYIZIAYb4QgENBCAWHkVhc3ktUlNBIEdlbmVyYXRlZCBD
ZXJ0aWZpY2F0ZTAdBgNVHQ4EFgQUULXH+IRtC42ikjxmcDtoRqFBLl4wgeYGA1Ud
IwSB3jCB24AU5VdsWB3Gg1mLmRpt6YgcgiXhydGhgbekgbQwgbExCzAJBgNVBAYT
AlVTMQswCQYDVQQIEwJXWTEQMA4GA1UEBxMHTGFyYW1pZTEYMBYGA1UEChMPQ293
Ym95IFJvYm90aWNzMRkwFwYDVQQLExBDb21wdXRlciBTY2llbmNlMRswGQYDVQQD
ExJjb3dib3lyb2JvdGljcy5jb20xDzANBgNVBCkTBnNlcnZlcjEgMB4GCSqGSIb3
DQEJARYRYm1vb3JlMTZAdXd5by5lZHWCCQCnJMLvlV0VIDATBgNVHSUEDDAKBggr
BgEFBQcDAjALBgNVHQ8EBAMCB4AwGAYDVR0RBBEwD4INY293Ym95TWFuYWdlcjAN
BgkqhkiG9w0BAQsFAAOCAQEA4VVrefm1S9yuAUah/xfCLEQqSN75o8E5j8HUxn7C
ofjkCOlObpzPX/l/R+FBhrzqPwjYjXJtG+cgB3ePR0VtD/mXQkM1h9o2gNK70noz
TtXTXRAXt7KqLTuI+Rcs6yXWI+YoxKBVutwD2U1ZVdIktVJREFn4Kmdcn5sxn+xm
SMfw1IM6zWogE1N7htmvHn/btHueoqMUN5pJhutRh8akIyO6AGbsPhOX+dEHbeQv
+lqAIqFYWw92VhkVcrCn2xO7g9kthWRnaaGEeTwsnzvoo30crZYrCnpF3dq8lqpA
kp6yyXUWVN5Ia57pyqrqLRkHDYh1fUKESA2W/oYuO3JkDg==
-----END CERTIFICATE-----
