Certificate:
    Data:
        Version: 3 (0x2)
        Serial Number: 9 (0x9)
    Signature Algorithm: sha256WithRSAEncryption
        Issuer: C=US, ST=WY, L=Laramie, O=Cowboy Robotics, OU=Computer Science, CN=cowboyrobotics.com/name=server/emailAddress=bmoore16@uwyo.edu
        Validity
            Not Before: Jan 29 23:03:01 2016 GMT
            Not After : Jan 26 23:03:01 2026 GMT
        Subject: C=US, ST=WY, L=Laramie, O=Cowboy Robotics, OU=Computer Science, CN=nasserVPN/name=server/emailAddress=bmoore16@uwyo.edu
        Subject Public Key Info:
            Public Key Algorithm: rsaEncryption
                Public-Key: (2048 bit)
                Modulus:
                    00:a6:6a:a8:ac:3b:f4:c0:23:1f:ae:8b:64:c8:eb:
                    fe:2e:21:90:5c:e4:87:75:7d:77:9c:31:d7:de:68:
                    d7:98:c6:95:71:a1:fe:8e:da:06:67:d1:03:9b:45:
                    90:23:0d:ee:c1:b9:bc:bc:e6:54:4e:03:66:74:38:
                    40:7d:37:71:29:b2:30:7c:82:24:c4:cb:c3:82:07:
                    11:7b:4d:ba:cc:21:06:b2:f6:6c:18:84:e3:60:c1:
                    63:88:b2:34:d2:d3:db:9d:76:4f:d3:b7:39:22:75:
                    0f:32:9a:b2:2f:09:06:f7:b1:e2:bd:01:e3:77:d6:
                    f6:06:92:8f:c6:82:d7:b8:73:2d:11:4f:ab:a4:c0:
                    63:95:59:64:32:39:48:36:05:32:7a:a9:08:96:19:
                    7f:83:8b:4f:f0:50:fe:8d:e9:ee:7a:ec:41:b2:e3:
                    ab:0f:14:80:ab:4d:30:4d:2e:fe:45:7d:e0:d6:d3:
                    97:12:54:a1:42:0e:79:5b:5e:58:b5:d3:f8:fe:75:
                    08:1c:82:d9:f4:5f:6f:18:c8:70:90:b3:5c:9f:8e:
                    fb:7b:3e:d6:4b:cb:1a:2f:65:14:d9:32:9d:6c:fe:
                    55:46:70:a2:7b:bf:01:05:a0:a8:0c:f5:de:1f:67:
                    48:36:b3:55:62:a2:69:e5:5f:07:0f:25:ae:81:ee:
                    7b:35
                Exponent: 65537 (0x10001)
        X509v3 extensions:
            X509v3 Basic Constraints: 
                CA:FALSE
            Netscape Comment: 
                Easy-RSA Generated Certificate
            X509v3 Subject Key Identifier: 
                86:2A:EA:E9:7D:82:3C:EC:3A:D2:08:EF:94:A2:6F:53:4A:B7:A1:8D
            X509v3 Authority Key Identifier: 
                keyid:E5:57:6C:58:1D:C6:83:59:8B:99:1A:6D:E9:88:1C:82:25:E1:C9:D1
                DirName:/C=US/ST=WY/L=Laramie/O=Cowboy Robotics/OU=Computer Science/CN=cowboyrobotics.com/name=server/emailAddress=bmoore16@uwyo.edu
                serial:A7:24:C2:EF:95:5D:15:20

            X509v3 Extended Key Usage: 
                TLS Web Client Authentication
            X509v3 Key Usage: 
                Digital Signature
            X509v3 Subject Alternative Name: 
                DNS:nasserVPN
    Signature Algorithm: sha256WithRSAEncryption
         d0:97:43:8d:9a:b3:5f:20:3e:91:62:f8:71:0f:e2:7b:0a:ce:
         ed:d1:2b:5d:6e:56:80:de:b4:46:8a:34:4d:07:16:3e:0c:12:
         74:f8:98:86:c7:31:fd:1a:6b:57:f7:4c:5a:69:ca:12:ef:b9:
         3f:72:03:0a:c8:b7:71:6f:af:bf:4e:e6:f7:86:1a:7f:a7:e5:
         e8:5f:d9:1c:c9:a9:3c:20:2c:60:49:b5:33:43:39:86:79:f3:
         6e:be:98:e7:bb:5e:81:5e:e2:fd:81:d2:a2:b7:c9:fd:6b:7d:
         60:3f:10:ed:b1:d2:b7:52:bf:70:75:ce:0f:ad:fc:f8:41:df:
         17:36:2d:00:a4:42:9b:f1:bc:6f:d6:81:91:96:e3:81:11:5a:
         95:ea:59:f9:3b:0a:b1:62:73:a1:fa:e5:a8:42:ce:7a:99:07:
         27:c6:0f:aa:81:b0:a0:7d:7f:4e:77:06:6b:80:10:8d:59:06:
         ec:d3:f9:fe:87:be:d2:59:c4:62:9a:8c:2b:82:11:05:0f:71:
         96:a4:ad:cb:ac:e0:a2:b3:97:7c:d3:05:64:a1:81:1a:e4:c6:
         3b:c0:d4:ac:5a:80:01:26:35:c3:0a:bb:f1:b1:d9:bd:35:2a:
         a9:2a:49:46:21:9d:e6:71:02:f9:f1:a6:90:32:c2:3c:72:01:
         f9:2d:ab:50
-----BEGIN CERTIFICATE-----
MIIFVjCCBD6gAwIBAgIBCTANBgkqhkiG9w0BAQsFADCBsTELMAkGA1UEBhMCVVMx
CzAJBgNVBAgTAldZMRAwDgYDVQQHEwdMYXJhbWllMRgwFgYDVQQKEw9Db3dib3kg
Um9ib3RpY3MxGTAXBgNVBAsTEENvbXB1dGVyIFNjaWVuY2UxGzAZBgNVBAMTEmNv
d2JveXJvYm90aWNzLmNvbTEPMA0GA1UEKRMGc2VydmVyMSAwHgYJKoZIhvcNAQkB
FhFibW9vcmUxNkB1d3lvLmVkdTAeFw0xNjAxMjkyMzAzMDFaFw0yNjAxMjYyMzAz
MDFaMIGoMQswCQYDVQQGEwJVUzELMAkGA1UECBMCV1kxEDAOBgNVBAcTB0xhcmFt
aWUxGDAWBgNVBAoTD0Nvd2JveSBSb2JvdGljczEZMBcGA1UECxMQQ29tcHV0ZXIg
U2NpZW5jZTESMBAGA1UEAxMJbmFzc2VyVlBOMQ8wDQYDVQQpEwZzZXJ2ZXIxIDAe
BgkqhkiG9w0BCQEWEWJtb29yZTE2QHV3eW8uZWR1MIIBIjANBgkqhkiG9w0BAQEF
AAOCAQ8AMIIBCgKCAQEApmqorDv0wCMfrotkyOv+LiGQXOSHdX13nDHX3mjXmMaV
caH+jtoGZ9EDm0WQIw3uwbm8vOZUTgNmdDhAfTdxKbIwfIIkxMvDggcRe026zCEG
svZsGITjYMFjiLI00tPbnXZP07c5InUPMpqyLwkG97HivQHjd9b2BpKPxoLXuHMt
EU+rpMBjlVlkMjlINgUyeqkIlhl/g4tP8FD+jenueuxBsuOrDxSAq00wTS7+RX3g
1tOXElShQg55W15YtdP4/nUIHILZ9F9vGMhwkLNcn477ez7WS8saL2UU2TKdbP5V
RnCie78BBaCoDPXeH2dINrNVYqJp5V8HDyWuge57NQIDAQABo4IBfjCCAXowCQYD
VR0TBAIwADAtBglghkgBhvhCAQ0EIBYeRWFzeS1SU0EgR2VuZXJhdGVkIENlcnRp
ZmljYXRlMB0GA1UdDgQWBBSGKurpfYI87DrSCO+Uom9TSrehjTCB5gYDVR0jBIHe
MIHbgBTlV2xYHcaDWYuZGm3piByCJeHJ0aGBt6SBtDCBsTELMAkGA1UEBhMCVVMx
CzAJBgNVBAgTAldZMRAwDgYDVQQHEwdMYXJhbWllMRgwFgYDVQQKEw9Db3dib3kg
Um9ib3RpY3MxGTAXBgNVBAsTEENvbXB1dGVyIFNjaWVuY2UxGzAZBgNVBAMTEmNv
d2JveXJvYm90aWNzLmNvbTEPMA0GA1UEKRMGc2VydmVyMSAwHgYJKoZIhvcNAQkB
FhFibW9vcmUxNkB1d3lvLmVkdYIJAKckwu+VXRUgMBMGA1UdJQQMMAoGCCsGAQUF
BwMCMAsGA1UdDwQEAwIHgDAUBgNVHREEDTALggluYXNzZXJWUE4wDQYJKoZIhvcN
AQELBQADggEBANCXQ42as18gPpFi+HEP4nsKzu3RK11uVoDetEaKNE0HFj4MEnT4
mIbHMf0aa1f3TFppyhLvuT9yAwrIt3Fvr79O5veGGn+n5ehf2RzJqTwgLGBJtTND
OYZ5826+mOe7XoFe4v2B0qK3yf1rfWA/EO2x0rdSv3B1zg+t/PhB3xc2LQCkQpvx
vG/WgZGW44ERWpXqWfk7CrFic6H65ahCznqZByfGD6qBsKB9f053BmuAEI1ZBuzT
+f6HvtJZxGKajCuCEQUPcZakrcus4KKzl3zTBWShgRrkxjvA1KxagAEmNcMKu/Gx
2b01KqkqSUYhneZxAvnxppAywjxyAfktq1A=
-----END CERTIFICATE-----
