Certificate:
    Data:
        Version: 3 (0x2)
        Serial Number: 8 (0x8)
    Signature Algorithm: sha256WithRSAEncryption
        Issuer: C=US, ST=WY, L=Laramie, O=Cowboy Robotics, OU=Computer Science, CN=cowboyrobotics.com/name=server/emailAddress=bmoore16@uwyo.edu
        Validity
            Not Before: Jan 29 23:02:44 2016 GMT
            Not After : Jan 26 23:02:44 2026 GMT
        Subject: C=US, ST=WY, L=Laramie, O=Cowboy Robotics, OU=Computer Science, CN=richieVPN/name=server/emailAddress=bmoore16@uwyo.edu
        Subject Public Key Info:
            Public Key Algorithm: rsaEncryption
                Public-Key: (2048 bit)
                Modulus:
                    00:c1:47:78:cd:da:1c:a0:bc:6c:dc:ce:51:e8:6e:
                    78:b6:37:a2:ec:eb:67:51:2e:e3:c3:f9:02:12:74:
                    7e:40:a0:5a:43:69:8b:f5:5a:2f:84:af:87:27:45:
                    0f:d3:e1:00:f9:e7:6d:42:14:b2:6f:e1:8b:a4:87:
                    d0:a9:d3:bd:a9:83:a8:4b:6a:c4:0a:94:db:8a:4e:
                    da:c3:cd:e9:33:3e:b6:bf:28:72:05:dd:90:4e:39:
                    56:f3:e6:65:00:3c:67:98:98:18:01:77:f4:f9:a7:
                    53:2a:d3:fe:1b:93:c3:e9:a2:5e:c5:af:8d:8b:be:
                    fe:0d:5f:7b:2d:ce:62:1f:c9:29:f4:74:65:74:df:
                    64:af:2b:19:6e:df:c4:a8:97:6e:81:b1:a5:f2:ac:
                    09:9e:22:af:b1:56:d9:5f:a9:88:d4:12:05:53:59:
                    e5:14:8a:1a:9e:80:d0:5b:36:f8:de:85:be:1f:ff:
                    d4:e8:5e:21:2f:64:c3:78:4c:2e:df:68:a6:f3:48:
                    80:80:78:8b:b6:b2:a2:c4:1a:e7:6c:2f:e5:64:b6:
                    e1:df:aa:95:8e:a1:4b:27:25:10:4d:0a:0a:85:68:
                    5e:ab:03:b8:03:a9:c9:7e:b7:cb:00:12:92:31:c0:
                    73:1e:b4:53:85:d0:5d:c4:cf:8f:8d:46:70:53:b1:
                    79:25
                Exponent: 65537 (0x10001)
        X509v3 extensions:
            X509v3 Basic Constraints: 
                CA:FALSE
            Netscape Comment: 
                Easy-RSA Generated Certificate
            X509v3 Subject Key Identifier: 
                5B:6F:0F:39:AF:31:C2:27:72:BC:A8:7C:8C:98:4A:13:9D:36:50:2F
            X509v3 Authority Key Identifier: 
                keyid:E5:57:6C:58:1D:C6:83:59:8B:99:1A:6D:E9:88:1C:82:25:E1:C9:D1
                DirName:/C=US/ST=WY/L=Laramie/O=Cowboy Robotics/OU=Computer Science/CN=cowboyrobotics.com/name=server/emailAddress=bmoore16@uwyo.edu
                serial:A7:24:C2:EF:95:5D:15:20

            X509v3 Extended Key Usage: 
                TLS Web Client Authentication
            X509v3 Key Usage: 
                Digital Signature
            X509v3 Subject Alternative Name: 
                DNS:richieVPN
    Signature Algorithm: sha256WithRSAEncryption
         6c:c7:0c:13:9e:fa:cc:14:79:dd:25:02:3f:60:8e:1d:4a:68:
         8a:87:9e:c9:19:2b:2a:e8:e7:08:f8:02:f8:0a:ed:d4:80:99:
         b6:b3:97:55:c4:75:e2:9c:4e:c8:64:19:e9:56:1c:8e:5b:4c:
         bc:df:ba:de:46:e6:b5:a2:69:85:ef:d5:5e:aa:bf:26:7a:9a:
         31:41:b0:cb:8d:0c:52:f5:0a:6b:62:cc:da:e2:0f:ba:20:19:
         2c:8c:5d:30:bb:9e:ca:15:c9:4a:12:93:a7:9c:f5:66:d1:67:
         a0:62:fc:18:1a:85:d8:8c:3b:41:21:03:01:fd:49:9a:68:c9:
         61:48:e1:95:5f:7a:79:2f:05:b5:0e:03:20:37:6d:cc:8a:b6:
         eb:de:41:28:27:d6:f8:c5:3f:bf:a8:e7:a9:e0:1d:1e:51:1a:
         7d:09:39:59:a6:04:59:c0:91:dd:15:56:90:01:02:5b:c7:18:
         ab:4f:36:e9:f1:f0:87:6b:9d:6f:bc:3f:8f:07:f9:f3:d0:68:
         e8:9e:07:43:a6:b1:e0:ab:19:c7:bb:63:cc:d2:0e:25:db:6b:
         d5:71:37:89:fa:eb:fd:4a:37:0d:4f:3b:9d:c1:6d:1c:62:e1:
         b2:8e:eb:01:e6:05:cb:00:c6:00:68:f3:98:e0:7d:b9:1c:f1:
         bc:3b:24:66
-----BEGIN CERTIFICATE-----
MIIFVjCCBD6gAwIBAgIBCDANBgkqhkiG9w0BAQsFADCBsTELMAkGA1UEBhMCVVMx
CzAJBgNVBAgTAldZMRAwDgYDVQQHEwdMYXJhbWllMRgwFgYDVQQKEw9Db3dib3kg
Um9ib3RpY3MxGTAXBgNVBAsTEENvbXB1dGVyIFNjaWVuY2UxGzAZBgNVBAMTEmNv
d2JveXJvYm90aWNzLmNvbTEPMA0GA1UEKRMGc2VydmVyMSAwHgYJKoZIhvcNAQkB
FhFibW9vcmUxNkB1d3lvLmVkdTAeFw0xNjAxMjkyMzAyNDRaFw0yNjAxMjYyMzAy
NDRaMIGoMQswCQYDVQQGEwJVUzELMAkGA1UECBMCV1kxEDAOBgNVBAcTB0xhcmFt
aWUxGDAWBgNVBAoTD0Nvd2JveSBSb2JvdGljczEZMBcGA1UECxMQQ29tcHV0ZXIg
U2NpZW5jZTESMBAGA1UEAxMJcmljaGllVlBOMQ8wDQYDVQQpEwZzZXJ2ZXIxIDAe
BgkqhkiG9w0BCQEWEWJtb29yZTE2QHV3eW8uZWR1MIIBIjANBgkqhkiG9w0BAQEF
AAOCAQ8AMIIBCgKCAQEAwUd4zdocoLxs3M5R6G54tjei7OtnUS7jw/kCEnR+QKBa
Q2mL9VovhK+HJ0UP0+EA+edtQhSyb+GLpIfQqdO9qYOoS2rECpTbik7aw83pMz62
vyhyBd2QTjlW8+ZlADxnmJgYAXf0+adTKtP+G5PD6aJexa+Ni77+DV97Lc5iH8kp
9HRldN9krysZbt/EqJdugbGl8qwJniKvsVbZX6mI1BIFU1nlFIoanoDQWzb43oW+
H//U6F4hL2TDeEwu32im80iAgHiLtrKixBrnbC/lZLbh36qVjqFLJyUQTQoKhWhe
qwO4A6nJfrfLABKSMcBzHrRThdBdxM+PjUZwU7F5JQIDAQABo4IBfjCCAXowCQYD
VR0TBAIwADAtBglghkgBhvhCAQ0EIBYeRWFzeS1SU0EgR2VuZXJhdGVkIENlcnRp
ZmljYXRlMB0GA1UdDgQWBBRbbw85rzHCJ3K8qHyMmEoTnTZQLzCB5gYDVR0jBIHe
MIHbgBTlV2xYHcaDWYuZGm3piByCJeHJ0aGBt6SBtDCBsTELMAkGA1UEBhMCVVMx
CzAJBgNVBAgTAldZMRAwDgYDVQQHEwdMYXJhbWllMRgwFgYDVQQKEw9Db3dib3kg
Um9ib3RpY3MxGTAXBgNVBAsTEENvbXB1dGVyIFNjaWVuY2UxGzAZBgNVBAMTEmNv
d2JveXJvYm90aWNzLmNvbTEPMA0GA1UEKRMGc2VydmVyMSAwHgYJKoZIhvcNAQkB
FhFibW9vcmUxNkB1d3lvLmVkdYIJAKckwu+VXRUgMBMGA1UdJQQMMAoGCCsGAQUF
BwMCMAsGA1UdDwQEAwIHgDAUBgNVHREEDTALgglyaWNoaWVWUE4wDQYJKoZIhvcN
AQELBQADggEBAGzHDBOe+swUed0lAj9gjh1KaIqHnskZKyro5wj4AvgK7dSAmbaz
l1XEdeKcTshkGelWHI5bTLzfut5G5rWiaYXv1V6qvyZ6mjFBsMuNDFL1CmtizNri
D7ogGSyMXTC7nsoVyUoSk6ec9WbRZ6Bi/BgahdiMO0EhAwH9SZpoyWFI4ZVfenkv
BbUOAyA3bcyKtuveQSgn1vjFP7+o56ngHR5RGn0JOVmmBFnAkd0VVpABAlvHGKtP
Nunx8IdrnW+8P48H+fPQaOieB0OmseCrGce7Y8zSDiXba9VxN4n66/1KNw1PO53B
bRxi4bKO6wHmBcsAxgBo85jgfbkc8bw7JGY=
-----END CERTIFICATE-----
