Certificate:
    Data:
        Version: 3 (0x2)
        Serial Number: 7 (0x7)
    Signature Algorithm: sha256WithRSAEncryption
        Issuer: C=US, ST=WY, L=Laramie, O=Cowboy Robotics, OU=Computer Science, CN=cowboyrobotics.com/name=server/emailAddress=bmoore16@uwyo.edu
        Validity
            Not Before: Jan 29 23:02:27 2016 GMT
            Not After : Jan 26 23:02:27 2026 GMT
        Subject: C=US, ST=WY, L=Laramie, O=Cowboy Robotics, OU=Computer Science, CN=robVPN/name=server/emailAddress=bmoore16@uwyo.edu
        Subject Public Key Info:
            Public Key Algorithm: rsaEncryption
                Public-Key: (2048 bit)
                Modulus:
                    00:aa:43:ea:70:97:8c:99:51:81:82:0a:24:05:19:
                    5d:c3:88:b2:b6:d1:15:c6:fa:05:15:49:fe:0d:27:
                    1c:c7:15:2d:66:74:79:fb:d5:fd:ef:ab:9d:9b:0d:
                    6b:53:8c:6e:9f:f0:a8:0f:89:1c:ef:27:6b:c8:f8:
                    53:ca:57:0e:05:55:72:83:6c:44:d9:ad:67:6b:fb:
                    e8:2e:08:1b:b9:10:e5:5b:fb:d2:93:45:0d:02:f9:
                    b8:06:b0:02:b3:ec:c9:1b:7c:21:97:19:5a:4e:85:
                    88:aa:ed:25:d1:c2:82:bb:f3:c2:1a:47:f6:bc:be:
                    4c:ce:fa:60:97:ee:33:34:ba:9d:90:3e:91:12:ea:
                    ff:7e:b9:21:a4:15:67:77:18:29:fe:da:87:f7:08:
                    ea:3a:25:37:ad:1c:c1:86:10:1c:f3:b5:87:27:87:
                    4b:91:f6:f4:7a:5a:25:96:7e:3b:c3:cc:88:79:b1:
                    eb:12:3d:53:d1:21:bd:48:7d:29:d5:09:f5:6f:f0:
                    aa:b5:1f:de:f2:ce:52:e7:e7:3a:02:47:09:22:c0:
                    b7:62:f6:3d:76:77:43:60:72:51:eb:10:75:29:84:
                    f3:6a:f1:83:19:a9:f6:4a:21:45:6e:11:ab:04:ce:
                    45:d3:f8:33:30:cd:ce:6d:fa:36:38:9b:8d:7d:25:
                    b1:01
                Exponent: 65537 (0x10001)
        X509v3 extensions:
            X509v3 Basic Constraints: 
                CA:FALSE
            Netscape Comment: 
                Easy-RSA Generated Certificate
            X509v3 Subject Key Identifier: 
                A6:52:43:5A:86:B4:5E:86:A0:A1:C9:2D:27:05:17:8C:B0:60:D2:72
            X509v3 Authority Key Identifier: 
                keyid:E5:57:6C:58:1D:C6:83:59:8B:99:1A:6D:E9:88:1C:82:25:E1:C9:D1
                DirName:/C=US/ST=WY/L=Laramie/O=Cowboy Robotics/OU=Computer Science/CN=cowboyrobotics.com/name=server/emailAddress=bmoore16@uwyo.edu
                serial:A7:24:C2:EF:95:5D:15:20

            X509v3 Extended Key Usage: 
                TLS Web Client Authentication
            X509v3 Key Usage: 
                Digital Signature
            X509v3 Subject Alternative Name: 
                DNS:robVPN
    Signature Algorithm: sha256WithRSAEncryption
         a1:92:a4:a5:17:41:bd:c8:1d:d7:d8:f5:76:58:3b:a5:f4:99:
         1d:2f:66:fc:98:e4:2b:aa:a7:b1:ed:6d:45:cc:47:07:73:5f:
         6f:3d:64:05:7a:00:30:f7:14:83:a0:5d:41:ed:8f:cd:45:66:
         9d:3f:c1:73:22:67:44:32:27:7e:29:97:4b:71:9a:ea:d4:64:
         56:39:b1:36:29:e3:d7:78:43:d0:f1:14:1f:96:84:6c:49:56:
         ff:1a:42:b6:42:de:ff:72:05:19:47:8d:be:5e:a7:99:8b:92:
         87:77:be:8b:94:69:c8:09:7d:b7:32:f7:3e:42:6c:c5:34:83:
         e4:9d:4f:1d:1a:33:94:db:b3:59:37:55:8f:bf:a1:45:ab:d0:
         f6:99:42:c2:e8:6f:5a:6d:e4:27:b9:b0:8f:22:c7:1c:4e:de:
         d3:37:5a:40:f3:16:41:a9:fd:e1:84:1b:f3:c4:28:3e:fe:6b:
         99:77:f4:95:fa:e7:10:50:85:a2:cb:8e:c7:17:90:61:1d:66:
         3c:40:0c:ce:e1:6e:1a:d0:5f:ef:8c:92:34:0a:72:ee:7a:93:
         5e:9e:a2:7f:be:ae:f2:17:22:33:e0:0e:d3:51:92:9c:7b:83:
         dc:a6:b4:1b:da:a1:e3:f2:40:fd:68:4e:2e:15:3e:93:ca:3f:
         76:24:40:35
-----BEGIN CERTIFICATE-----
MIIFUDCCBDigAwIBAgIBBzANBgkqhkiG9w0BAQsFADCBsTELMAkGA1UEBhMCVVMx
CzAJBgNVBAgTAldZMRAwDgYDVQQHEwdMYXJhbWllMRgwFgYDVQQKEw9Db3dib3kg
Um9ib3RpY3MxGTAXBgNVBAsTEENvbXB1dGVyIFNjaWVuY2UxGzAZBgNVBAMTEmNv
d2JveXJvYm90aWNzLmNvbTEPMA0GA1UEKRMGc2VydmVyMSAwHgYJKoZIhvcNAQkB
FhFibW9vcmUxNkB1d3lvLmVkdTAeFw0xNjAxMjkyMzAyMjdaFw0yNjAxMjYyMzAy
MjdaMIGlMQswCQYDVQQGEwJVUzELMAkGA1UECBMCV1kxEDAOBgNVBAcTB0xhcmFt
aWUxGDAWBgNVBAoTD0Nvd2JveSBSb2JvdGljczEZMBcGA1UECxMQQ29tcHV0ZXIg
U2NpZW5jZTEPMA0GA1UEAxMGcm9iVlBOMQ8wDQYDVQQpEwZzZXJ2ZXIxIDAeBgkq
hkiG9w0BCQEWEWJtb29yZTE2QHV3eW8uZWR1MIIBIjANBgkqhkiG9w0BAQEFAAOC
AQ8AMIIBCgKCAQEAqkPqcJeMmVGBggokBRldw4iyttEVxvoFFUn+DSccxxUtZnR5
+9X976udmw1rU4xun/CoD4kc7ydryPhTylcOBVVyg2xE2a1na/voLggbuRDlW/vS
k0UNAvm4BrACs+zJG3whlxlaToWIqu0l0cKCu/PCGkf2vL5Mzvpgl+4zNLqdkD6R
Eur/frkhpBVndxgp/tqH9wjqOiU3rRzBhhAc87WHJ4dLkfb0elolln47w8yIebHr
Ej1T0SG9SH0p1Qn1b/CqtR/e8s5S5+c6AkcJIsC3YvY9dndDYHJR6xB1KYTzavGD
Gan2SiFFbhGrBM5F0/gzMM3Obfo2OJuNfSWxAQIDAQABo4IBezCCAXcwCQYDVR0T
BAIwADAtBglghkgBhvhCAQ0EIBYeRWFzeS1SU0EgR2VuZXJhdGVkIENlcnRpZmlj
YXRlMB0GA1UdDgQWBBSmUkNahrRehqChyS0nBReMsGDScjCB5gYDVR0jBIHeMIHb
gBTlV2xYHcaDWYuZGm3piByCJeHJ0aGBt6SBtDCBsTELMAkGA1UEBhMCVVMxCzAJ
BgNVBAgTAldZMRAwDgYDVQQHEwdMYXJhbWllMRgwFgYDVQQKEw9Db3dib3kgUm9i
b3RpY3MxGTAXBgNVBAsTEENvbXB1dGVyIFNjaWVuY2UxGzAZBgNVBAMTEmNvd2Jv
eXJvYm90aWNzLmNvbTEPMA0GA1UEKRMGc2VydmVyMSAwHgYJKoZIhvcNAQkBFhFi
bW9vcmUxNkB1d3lvLmVkdYIJAKckwu+VXRUgMBMGA1UdJQQMMAoGCCsGAQUFBwMC
MAsGA1UdDwQEAwIHgDARBgNVHREECjAIggZyb2JWUE4wDQYJKoZIhvcNAQELBQAD
ggEBAKGSpKUXQb3IHdfY9XZYO6X0mR0vZvyY5Cuqp7HtbUXMRwdzX289ZAV6ADD3
FIOgXUHtj81FZp0/wXMiZ0QyJ34pl0txmurUZFY5sTYp49d4Q9DxFB+WhGxJVv8a
QrZC3v9yBRlHjb5ep5mLkod3vouUacgJfbcy9z5CbMU0g+SdTx0aM5Tbs1k3VY+/
oUWr0PaZQsLob1pt5Ce5sI8ixxxO3tM3WkDzFkGp/eGEG/PEKD7+a5l39JX65xBQ
haLLjscXkGEdZjxADM7hbhrQX++MkjQKcu56k16eon++rvIXIjPgDtNRkpx7g9ym
tBvaoePyQP1oTi4VPpPKP3YkQDU=
-----END CERTIFICATE-----
