Certificate:
    Data:
        Version: 3 (0x2)
        Serial Number: 3 (0x3)
    Signature Algorithm: sha256WithRSAEncryption
        Issuer: C=US, ST=WY, L=Laramie, O=Cowboy Robotics, OU=Computer Science, CN=cowboyrobotics.com/name=server/emailAddress=bmoore16@uwyo.edu
        Validity
            Not Before: Jan 29 23:01:15 2016 GMT
            Not After : Jan 26 23:01:15 2026 GMT
        Subject: C=US, ST=WY, L=Laramie, O=Cowboy Robotics, OU=Computer Science, CN=rover2/name=server/emailAddress=bmoore16@uwyo.edu
        Subject Public Key Info:
            Public Key Algorithm: rsaEncryption
                Public-Key: (2048 bit)
                Modulus:
                    00:f4:b5:ee:16:e4:91:67:2f:19:2e:11:ce:3b:5b:
                    5c:30:6b:99:9c:0c:93:a6:b5:18:6e:4e:80:ef:ae:
                    cc:a7:68:a4:b3:78:d1:7a:ba:c9:23:cf:aa:ae:02:
                    26:ab:44:83:c6:71:72:f7:99:cf:b3:04:5d:25:b3:
                    74:c2:33:06:64:5d:e3:4f:26:f8:c3:c2:42:a4:00:
                    66:17:43:8e:9c:49:63:5c:9a:d0:ac:ad:c2:69:b3:
                    22:5b:da:14:44:9e:c2:a0:29:75:e3:7e:90:7b:82:
                    6c:a5:f2:42:e6:66:db:f6:e7:8f:6b:4a:a0:cc:46:
                    64:18:4b:d5:dd:e8:c3:4a:7f:39:34:ce:cc:9b:fb:
                    41:25:29:82:8e:5f:24:ac:db:2d:68:65:bf:5a:38:
                    84:fb:80:e1:e6:a8:c4:75:2f:1c:ff:2f:04:d5:8c:
                    53:99:ac:cb:7c:87:90:8e:49:32:81:20:b1:30:6b:
                    91:9e:ad:14:07:5b:94:a7:76:6b:e5:08:30:48:31:
                    21:3c:d7:e2:d7:b9:c2:fb:08:a1:51:1c:54:37:37:
                    bd:50:cf:a6:3d:19:b5:28:12:61:ad:7c:cc:17:7b:
                    3d:ce:a9:a5:a0:56:2e:9f:3d:dd:ee:f4:8a:10:e1:
                    76:22:cf:52:5e:82:4d:32:d5:71:05:62:44:8c:81:
                    37:5f
                Exponent: 65537 (0x10001)
        X509v3 extensions:
            X509v3 Basic Constraints: 
                CA:FALSE
            Netscape Comment: 
                Easy-RSA Generated Certificate
            X509v3 Subject Key Identifier: 
                F4:6B:E3:56:14:A6:43:67:E3:9B:6D:E8:A1:25:52:DC:B5:16:6B:D8
            X509v3 Authority Key Identifier: 
                keyid:E5:57:6C:58:1D:C6:83:59:8B:99:1A:6D:E9:88:1C:82:25:E1:C9:D1
                DirName:/C=US/ST=WY/L=Laramie/O=Cowboy Robotics/OU=Computer Science/CN=cowboyrobotics.com/name=server/emailAddress=bmoore16@uwyo.edu
                serial:A7:24:C2:EF:95:5D:15:20

            X509v3 Extended Key Usage: 
                TLS Web Client Authentication
            X509v3 Key Usage: 
                Digital Signature
            X509v3 Subject Alternative Name: 
                DNS:rover2
    Signature Algorithm: sha256WithRSAEncryption
         84:e9:8e:22:d9:0b:92:12:9f:68:c6:cd:14:69:8c:c8:c7:77:
         8b:60:6a:fb:b5:af:96:58:e3:be:92:8d:0b:65:b8:7c:16:6e:
         b7:24:9c:28:4e:17:76:13:4c:0e:b0:b5:c5:18:4f:6c:b1:41:
         2a:06:30:3f:20:c7:45:01:03:08:e8:86:3a:cd:43:8a:7f:13:
         29:ac:57:7f:96:10:26:65:b4:c5:37:c2:f8:77:57:03:9e:ae:
         2e:e5:3b:3e:05:0d:a7:52:11:b2:04:54:b6:52:ef:b7:44:a5:
         ae:37:35:f9:66:4f:9e:9f:ed:c0:55:44:95:bd:45:dc:8f:d0:
         61:f5:fd:8f:67:3b:50:10:34:f3:b5:e0:e5:07:34:c5:5c:cf:
         2a:2d:d8:75:cb:87:45:01:a6:37:8d:7b:3e:86:76:34:4f:48:
         0b:53:c6:f8:bb:2e:ab:1b:ed:73:6b:9f:97:0a:7d:03:4f:87:
         83:6d:23:7d:57:8b:6b:e3:7c:66:ac:53:a6:4c:74:d5:38:0d:
         0a:dd:60:d4:5a:d5:6d:0b:08:1e:8d:12:5f:88:fb:88:5c:88:
         5f:df:90:53:75:83:49:35:2b:b5:c7:5c:2c:54:3e:dd:fe:d5:
         e4:39:25:e3:f4:c9:ed:5e:b7:11:5a:f5:0d:bf:f4:7a:44:29:
         8c:ef:02:99
-----BEGIN CERTIFICATE-----
MIIFUDCCBDigAwIBAgIBAzANBgkqhkiG9w0BAQsFADCBsTELMAkGA1UEBhMCVVMx
CzAJBgNVBAgTAldZMRAwDgYDVQQHEwdMYXJhbWllMRgwFgYDVQQKEw9Db3dib3kg
Um9ib3RpY3MxGTAXBgNVBAsTEENvbXB1dGVyIFNjaWVuY2UxGzAZBgNVBAMTEmNv
d2JveXJvYm90aWNzLmNvbTEPMA0GA1UEKRMGc2VydmVyMSAwHgYJKoZIhvcNAQkB
FhFibW9vcmUxNkB1d3lvLmVkdTAeFw0xNjAxMjkyMzAxMTVaFw0yNjAxMjYyMzAx
MTVaMIGlMQswCQYDVQQGEwJVUzELMAkGA1UECBMCV1kxEDAOBgNVBAcTB0xhcmFt
aWUxGDAWBgNVBAoTD0Nvd2JveSBSb2JvdGljczEZMBcGA1UECxMQQ29tcHV0ZXIg
U2NpZW5jZTEPMA0GA1UEAxMGcm92ZXIyMQ8wDQYDVQQpEwZzZXJ2ZXIxIDAeBgkq
hkiG9w0BCQEWEWJtb29yZTE2QHV3eW8uZWR1MIIBIjANBgkqhkiG9w0BAQEFAAOC
AQ8AMIIBCgKCAQEA9LXuFuSRZy8ZLhHOO1tcMGuZnAyTprUYbk6A767Mp2iks3jR
errJI8+qrgImq0SDxnFy95nPswRdJbN0wjMGZF3jTyb4w8JCpABmF0OOnEljXJrQ
rK3CabMiW9oURJ7CoCl1436Qe4JspfJC5mbb9uePa0qgzEZkGEvV3ejDSn85NM7M
m/tBJSmCjl8krNstaGW/WjiE+4Dh5qjEdS8c/y8E1YxTmazLfIeQjkkygSCxMGuR
nq0UB1uUp3Zr5QgwSDEhPNfi17nC+wihURxUNze9UM+mPRm1KBJhrXzMF3s9zqml
oFYunz3d7vSKEOF2Is9SXoJNMtVxBWJEjIE3XwIDAQABo4IBezCCAXcwCQYDVR0T
BAIwADAtBglghkgBhvhCAQ0EIBYeRWFzeS1SU0EgR2VuZXJhdGVkIENlcnRpZmlj
YXRlMB0GA1UdDgQWBBT0a+NWFKZDZ+ObbeihJVLctRZr2DCB5gYDVR0jBIHeMIHb
gBTlV2xYHcaDWYuZGm3piByCJeHJ0aGBt6SBtDCBsTELMAkGA1UEBhMCVVMxCzAJ
BgNVBAgTAldZMRAwDgYDVQQHEwdMYXJhbWllMRgwFgYDVQQKEw9Db3dib3kgUm9i
b3RpY3MxGTAXBgNVBAsTEENvbXB1dGVyIFNjaWVuY2UxGzAZBgNVBAMTEmNvd2Jv
eXJvYm90aWNzLmNvbTEPMA0GA1UEKRMGc2VydmVyMSAwHgYJKoZIhvcNAQkBFhFi
bW9vcmUxNkB1d3lvLmVkdYIJAKckwu+VXRUgMBMGA1UdJQQMMAoGCCsGAQUFBwMC
MAsGA1UdDwQEAwIHgDARBgNVHREECjAIggZyb3ZlcjIwDQYJKoZIhvcNAQELBQAD
ggEBAITpjiLZC5ISn2jGzRRpjMjHd4tgavu1r5ZY476SjQtluHwWbrcknChOF3YT
TA6wtcUYT2yxQSoGMD8gx0UBAwjohjrNQ4p/EymsV3+WECZltMU3wvh3VwOeri7l
Oz4FDadSEbIEVLZS77dEpa43NflmT56f7cBVRJW9RdyP0GH1/Y9nO1AQNPO14OUH
NMVczyot2HXLh0UBpjeNez6GdjRPSAtTxvi7Lqsb7XNrn5cKfQNPh4NtI31Xi2vj
fGasU6ZMdNU4DQrdYNRa1W0LCB6NEl+I+4hciF/fkFN1g0k1K7XHXCxUPt3+1eQ5
JeP0ye1etxFa9Q2/9HpEKYzvApk=
-----END CERTIFICATE-----
